; ModuleID = '51/728.c'
source_filename = "51/728.c"
target datalayout = "e-m:e-p270:32:32-p271:32:32-p272:64:64-i64:64-f80:128-n8:16:32:64-S128"
target triple = "x86_64-pc-linux-gnu"

@.str = private unnamed_addr constant [3 x i8] c"%d\00", align 1
@.str.1 = private unnamed_addr constant [3 x i8] c"%s\00", align 1
@.str.2 = private unnamed_addr constant [4 x i8] c"%d\0A\00", align 1
@.str.3 = private unnamed_addr constant [3 x i8] c"%c\00", align 1
@.str.4 = private unnamed_addr constant [2 x i8] c"\0A\00", align 1
@.str.5 = private unnamed_addr constant [3 x i8] c"NO\00", align 1

; Function Attrs: noinline nounwind uwtable
define dso_local void @main() #0 {
  %1 = alloca i32, align 4
  %2 = alloca i32, align 4
  %3 = alloca i32, align 4
  %4 = alloca i32, align 4
  %5 = alloca i32, align 4
  %6 = alloca [999 x i32], align 16
  %7 = alloca i32, align 4
  %8 = alloca [99 x i32], align 16
  %9 = alloca i32, align 4
  %10 = alloca i32, align 4
  %11 = alloca [999 x i8], align 16
  %12 = bitcast [999 x i32]* %6 to i8*
  call void @llvm.memset.p0i8.i64(i8* align 16 %12, i8 0, i64 3996, i1 false)
  %13 = call i32 (i8*, ...) @__isoc99_scanf(i8* getelementptr inbounds ([3 x i8], [3 x i8]* @.str, i64 0, i64 0), i32* %1)
  %14 = getelementptr inbounds [999 x i8], [999 x i8]* %11, i64 0, i64 0
  %15 = call i32 (i8*, ...) @__isoc99_scanf(i8* getelementptr inbounds ([3 x i8], [3 x i8]* @.str.1, i64 0, i64 0), i8* %14)
  %16 = getelementptr inbounds [999 x i8], [999 x i8]* %11, i64 0, i64 0
  %17 = call i64 @strlen(i8* %16) #4
  %18 = trunc i64 %17 to i32
  store i32 %18, i32* %10, align 4
  store i32 0, i32* %4, align 4
  br label %19

19:                                               ; preds = %29, %0
  %20 = load i32, i32* %4, align 4
  %21 = load i32, i32* %1, align 4
  %22 = icmp slt i32 %20, %21
  br i1 %22, label %23, label %32

23:                                               ; preds = %19
  %24 = load i32, i32* %10, align 4
  %25 = load i32, i32* %4, align 4
  %26 = add nsw i32 %24, %25
  %27 = sext i32 %26 to i64
  %28 = getelementptr inbounds [999 x i8], [999 x i8]* %11, i64 0, i64 %27
  store i8 50, i8* %28, align 1
  br label %29

29:                                               ; preds = %23
  %30 = load i32, i32* %4, align 4
  %31 = add nsw i32 %30, 1
  store i32 %31, i32* %4, align 4
  br label %19

32:                                               ; preds = %19
  store i32 0, i32* %2, align 4
  br label %33

33:                                               ; preds = %88, %32
  %34 = load i32, i32* %2, align 4
  %35 = load i32, i32* %10, align 4
  %36 = load i32, i32* %1, align 4
  %37 = sub nsw i32 %35, %36
  %38 = icmp sle i32 %34, %37
  br i1 %38, label %39, label %91

39:                                               ; preds = %33
  %40 = load i32, i32* %2, align 4
  %41 = add nsw i32 %40, 1
  store i32 %41, i32* %3, align 4
  br label %42

42:                                               ; preds = %84, %39
  %43 = load i32, i32* %3, align 4
  %44 = load i32, i32* %10, align 4
  %45 = load i32, i32* %1, align 4
  %46 = sub nsw i32 %44, %45
  %47 = icmp sle i32 %43, %46
  br i1 %47, label %48, label %87

48:                                               ; preds = %42
  store i32 0, i32* %5, align 4
  store i32 0, i32* %4, align 4
  br label %49

49:                                               ; preds = %71, %48
  %50 = load i32, i32* %4, align 4
  %51 = load i32, i32* %1, align 4
  %52 = icmp slt i32 %50, %51
  br i1 %52, label %53, label %74

53:                                               ; preds = %49
  %54 = load i32, i32* %2, align 4
  %55 = load i32, i32* %4, align 4
  %56 = add nsw i32 %54, %55
  %57 = sext i32 %56 to i64
  %58 = getelementptr inbounds [999 x i8], [999 x i8]* %11, i64 0, i64 %57
  %59 = load i8, i8* %58, align 1
  %60 = sext i8 %59 to i32
  %61 = load i32, i32* %3, align 4
  %62 = load i32, i32* %4, align 4
  %63 = add nsw i32 %61, %62
  %64 = sext i32 %63 to i64
  %65 = getelementptr inbounds [999 x i8], [999 x i8]* %11, i64 0, i64 %64
  %66 = load i8, i8* %65, align 1
  %67 = sext i8 %66 to i32
  %68 = icmp ne i32 %60, %67
  br i1 %68, label %69, label %70

69:                                               ; preds = %53
  store i32 1, i32* %5, align 4
  br label %74

70:                                               ; preds = %53
  br label %71

71:                                               ; preds = %70
  %72 = load i32, i32* %4, align 4
  %73 = add nsw i32 %72, 1
  store i32 %73, i32* %4, align 4
  br label %49

74:                                               ; preds = %69, %49
  %75 = load i32, i32* %5, align 4
  %76 = icmp eq i32 %75, 0
  br i1 %76, label %77, label %83

77:                                               ; preds = %74
  %78 = load i32, i32* %2, align 4
  %79 = sext i32 %78 to i64
  %80 = getelementptr inbounds [999 x i32], [999 x i32]* %6, i64 0, i64 %79
  %81 = load i32, i32* %80, align 4
  %82 = add nsw i32 %81, 1
  store i32 %82, i32* %80, align 4
  br label %83

83:                                               ; preds = %77, %74
  br label %84

84:                                               ; preds = %83
  %85 = load i32, i32* %3, align 4
  %86 = add nsw i32 %85, 1
  store i32 %86, i32* %3, align 4
  br label %42

87:                                               ; preds = %42
  br label %88

88:                                               ; preds = %87
  %89 = load i32, i32* %2, align 4
  %90 = add nsw i32 %89, 1
  store i32 %90, i32* %2, align 4
  br label %33

91:                                               ; preds = %33
  %92 = getelementptr inbounds [999 x i32], [999 x i32]* %6, i64 0, i64 0
  %93 = load i32, i32* %92, align 16
  store i32 %93, i32* %7, align 4
  store i32 1, i32* %2, align 4
  br label %94

94:                                               ; preds = %113, %91
  %95 = load i32, i32* %2, align 4
  %96 = load i32, i32* %10, align 4
  %97 = load i32, i32* %1, align 4
  %98 = sub nsw i32 %96, %97
  %99 = icmp sle i32 %95, %98
  br i1 %99, label %100, label %116

100:                                              ; preds = %94
  %101 = load i32, i32* %7, align 4
  %102 = load i32, i32* %2, align 4
  %103 = sext i32 %102 to i64
  %104 = getelementptr inbounds [999 x i32], [999 x i32]* %6, i64 0, i64 %103
  %105 = load i32, i32* %104, align 4
  %106 = icmp slt i32 %101, %105
  br i1 %106, label %107, label %112

107:                                              ; preds = %100
  %108 = load i32, i32* %2, align 4
  %109 = sext i32 %108 to i64
  %110 = getelementptr inbounds [999 x i32], [999 x i32]* %6, i64 0, i64 %109
  %111 = load i32, i32* %110, align 4
  store i32 %111, i32* %7, align 4
  br label %112

112:                                              ; preds = %107, %100
  br label %113

113:                                              ; preds = %112
  %114 = load i32, i32* %2, align 4
  %115 = add nsw i32 %114, 1
  store i32 %115, i32* %2, align 4
  br label %94

116:                                              ; preds = %94
  %117 = load i32, i32* %7, align 4
  %118 = icmp sge i32 %117, 1
  br i1 %118, label %119, label %160

119:                                              ; preds = %116
  %120 = load i32, i32* %7, align 4
  %121 = add nsw i32 %120, 1
  %122 = call i32 (i8*, ...) @printf(i8* getelementptr inbounds ([4 x i8], [4 x i8]* @.str.2, i64 0, i64 0), i32 %121)
  store i32 0, i32* %2, align 4
  br label %123

123:                                              ; preds = %156, %119
  %124 = load i32, i32* %2, align 4
  %125 = load i32, i32* %10, align 4
  %126 = load i32, i32* %1, align 4
  %127 = sub nsw i32 %125, %126
  %128 = icmp sle i32 %124, %127
  br i1 %128, label %129, label %159

129:                                              ; preds = %123
  %130 = load i32, i32* %2, align 4
  %131 = sext i32 %130 to i64
  %132 = getelementptr inbounds [999 x i32], [999 x i32]* %6, i64 0, i64 %131
  %133 = load i32, i32* %132, align 4
  %134 = load i32, i32* %7, align 4
  %135 = icmp eq i32 %133, %134
  br i1 %135, label %136, label %155

136:                                              ; preds = %129
  store i32 0, i32* %4, align 4
  br label %137

137:                                              ; preds = %150, %136
  %138 = load i32, i32* %4, align 4
  %139 = load i32, i32* %1, align 4
  %140 = icmp slt i32 %138, %139
  br i1 %140, label %141, label %153

141:                                              ; preds = %137
  %142 = load i32, i32* %2, align 4
  %143 = load i32, i32* %4, align 4
  %144 = add nsw i32 %142, %143
  %145 = sext i32 %144 to i64
  %146 = getelementptr inbounds [999 x i8], [999 x i8]* %11, i64 0, i64 %145
  %147 = load i8, i8* %146, align 1
  %148 = sext i8 %147 to i32
  %149 = call i32 (i8*, ...) @printf(i8* getelementptr inbounds ([3 x i8], [3 x i8]* @.str.3, i64 0, i64 0), i32 %148)
  br label %150

150:                                              ; preds = %141
  %151 = load i32, i32* %4, align 4
  %152 = add nsw i32 %151, 1
  store i32 %152, i32* %4, align 4
  br label %137

153:                                              ; preds = %137
  %154 = call i32 (i8*, ...) @printf(i8* getelementptr inbounds ([2 x i8], [2 x i8]* @.str.4, i64 0, i64 0))
  br label %155

155:                                              ; preds = %153, %129
  br label %156

156:                                              ; preds = %155
  %157 = load i32, i32* %2, align 4
  %158 = add nsw i32 %157, 1
  store i32 %158, i32* %2, align 4
  br label %123

159:                                              ; preds = %123
  br label %162

160:                                              ; preds = %116
  %161 = call i32 (i8*, ...) @printf(i8* getelementptr inbounds ([3 x i8], [3 x i8]* @.str.5, i64 0, i64 0))
  br label %162

162:                                              ; preds = %160, %159
  ret void
}

; Function Attrs: argmemonly nounwind willreturn
declare void @llvm.memset.p0i8.i64(i8* nocapture writeonly, i8, i64, i1 immarg) #1

declare dso_local i32 @__isoc99_scanf(i8*, ...) #2

; Function Attrs: nounwind readonly
declare dso_local i64 @strlen(i8*) #3

declare dso_local i32 @printf(i8*, ...) #2


!llvm.module.flags = !{!0}
!llvm.ident = !{!1}

!0 = !{i32 1, !"wchar_size", i32 4}
!1 = !{!"clang version 10.0.0-4ubuntu1 "}
